target datalayout = "e-m:e-p270:32:32-p271:32:32-p272:64:64-i64:64-i128:128-f80:128-n8:16:32:64-S128"
target triple = "x86_64-pc-linux-gnu"

%"class.tbb::detail::r1::thread_dispatcher" = type { %"class.tbb::detail::r1::rml::tbb_client", %"class.tbb::detail::d1::rw_mutex", [3 x %"class.tbb::detail::r1::intrusive_list"], ptr, i8, ptr, %"struct.std::atomic.0", i32, i64, %"struct.std::atomic.2", ptr }
%"class.tbb::detail::r1::rml::tbb_client" = type { %"class.rml::client" }
%"class.rml::client" = type { %"class.rml::versioned_object" }
%"class.rml::versioned_object" = type { ptr }
%"class.tbb::detail::d1::rw_mutex" = type { %"struct.std::atomic" }
%"struct.std::atomic" = type { %"struct.std::__atomic_base" }
%"struct.std::__atomic_base" = type { i64 }
%"class.tbb::detail::r1::intrusive_list" = type { %"class.tbb::detail::r1::intrusive_list_base" }
%"class.tbb::detail::r1::intrusive_list_base" = type { %"struct.tbb::detail::d1::intrusive_list_node", i64 }
%"struct.tbb::detail::d1::intrusive_list_node" = type { ptr, ptr }
%"struct.std::atomic.0" = type { %"struct.std::__atomic_base.1" }
%"struct.std::__atomic_base.1" = type { i64 }
%"struct.std::atomic.2" = type { %"struct.std::__atomic_base.3" }
%"struct.std::__atomic_base.3" = type { i32 }

@_ZTVN3rml16versioned_objectE = linkonce_odr unnamed_addr constant { [5 x ptr] } { [5 x ptr] [ptr null, ptr @_ZTIN3rml16versioned_objectE, ptr @_ZN3rml16versioned_objectD2Ev, ptr @_ZN3rml16versioned_objectD0Ev, ptr @__cxa_pure_virtual] }, comdat, align 8
@.str.1 = private unnamed_addr constant [14 x i8] c"tbb::rw_mutex\00", align 1
@.str.2 = private unnamed_addr constant [1 x i8] zeroinitializer, align 1

; Function Attrs: inlinehint mustprogress nounwind sspstrong uwtable
define linkonce_odr void @_ZN3tbb6detail2d119intrusive_list_nodeC2Ev(ptr noundef nonnull align 8 dereferenceable(16) %0) unnamed_addr #1 comdat align 2 {
  %2 = alloca ptr, align 8
  store ptr %0, ptr %2, align 8, !tbaa !85
  %3 = load ptr, ptr %2, align 8
  %4 = getelementptr inbounds nuw %"struct.tbb::detail::d1::intrusive_list_node", ptr %3, i32 0, i32 0
  store ptr null, ptr %4, align 8, !tbaa !81
  %5 = getelementptr inbounds nuw %"struct.tbb::detail::d1::intrusive_list_node", ptr %3, i32 0, i32 1
  store ptr null, ptr %5, align 8, !tbaa !80
  ret void
}

; Function Attrs: mustprogress nounwind sspstrong uwtable
define linkonce_odr void @_ZNSt13__atomic_baseIlEC2El(ptr noundef nonnull align 8 dereferenceable(8) %0, i64 noundef %1) unnamed_addr #2 comdat align 2 {
  %3 = alloca ptr, align 8
  %4 = alloca i64, align 8
  store ptr %0, ptr %3, align 8, !tbaa !140
  store i64 %1, ptr %4, align 8, !tbaa !12
  %5 = load ptr, ptr %3, align 8
  %6 = getelementptr inbounds nuw %"struct.std::__atomic_base", ptr %5, i32 0, i32 0
  %7 = load i64, ptr %4, align 8, !tbaa !12
  store i64 %7, ptr %6, align 8, !tbaa !142
  ret void
}

; Function Attrs: inlinehint mustprogress nounwind sspstrong uwtable
define linkonce_odr void @_ZN3rml16versioned_objectC2Ev(ptr noundef nonnull align 8 dereferenceable(8) %0) unnamed_addr #1 comdat align 2 {
  %2 = alloca ptr, align 8
  store ptr %0, ptr %2, align 8, !tbaa !136
  %3 = load ptr, ptr %2, align 8
  store ptr getelementptr inbounds inrange(-16, 24) ({ [5 x ptr] }, ptr @_ZTVN3rml16versioned_objectE, i32 0, i32 0, i32 2), ptr %3, align 8, !tbaa !14
  ret void
}

; Function Attrs: mustprogress nounwind sspstrong uwtable
define linkonce_odr void @_ZNSt13__atomic_baseIjEC2Ej(ptr noundef nonnull align 4 dereferenceable(4) %0, i32 noundef %1) unnamed_addr #2 comdat align 2 {
  %3 = alloca ptr, align 8
  %4 = alloca i32, align 4
  store ptr %0, ptr %3, align 8, !tbaa !119
  store i32 %1, ptr %4, align 4, !tbaa !10
  %5 = load ptr, ptr %3, align 8
  %6 = getelementptr inbounds nuw %"struct.std::__atomic_base.3", ptr %5, i32 0, i32 0
  %7 = load i32, ptr %4, align 4, !tbaa !10
  store i32 %7, ptr %6, align 4, !tbaa !145
  ret void
}

; Function Attrs: mustprogress nounwind sspstrong uwtable
define linkonce_odr void @_ZNSt13__atomic_baseImEC2Em(ptr noundef nonnull align 8 dereferenceable(8) %0, i64 noundef %1) unnamed_addr #2 comdat align 2 {
  %3 = alloca ptr, align 8
  %4 = alloca i64, align 8
  store ptr %0, ptr %3, align 8, !tbaa !65
  store i64 %1, ptr %4, align 8, !tbaa !12
  %5 = load ptr, ptr %3, align 8
  %6 = getelementptr inbounds nuw %"struct.std::__atomic_base.1", ptr %5, i32 0, i32 0
  %7 = load i64, ptr %4, align 8, !tbaa !12
  store i64 %7, ptr %6, align 8, !tbaa !144
  ret void
}

; Function Attrs: mustprogress nounwind sspstrong uwtable
define linkonce_odr void @_ZN3tbb6detail2r119intrusive_list_baseINS1_14intrusive_listINS1_24thread_dispatcher_clientEEES4_EC2Ev(ptr noundef nonnull align 8 dereferenceable(24) %0) unnamed_addr #2 comdat align 2 {
  %2 = alloca ptr, align 8
  store ptr %0, ptr %2, align 8, !tbaa !56
  %3 = load ptr, ptr %2, align 8
  %4 = getelementptr inbounds nuw %"class.tbb::detail::r1::intrusive_list_base", ptr %3, i32 0, i32 0
  call void @_ZN3tbb6detail2d119intrusive_list_nodeC2Ev(ptr noundef nonnull align 8 dereferenceable(16) %4) #11
  %5 = getelementptr inbounds nuw %"class.tbb::detail::r1::intrusive_list_base", ptr %3, i32 0, i32 1
  store i64 0, ptr %5, align 8, !tbaa !82
  %6 = getelementptr inbounds nuw %"class.tbb::detail::r1::intrusive_list_base", ptr %3, i32 0, i32 0
  %7 = getelementptr inbounds nuw %"class.tbb::detail::r1::intrusive_list_base", ptr %3, i32 0, i32 0
  %8 = getelementptr inbounds nuw %"struct.tbb::detail::d1::intrusive_list_node", ptr %7, i32 0, i32 0
  store ptr %6, ptr %8, align 8, !tbaa !143
  %9 = getelementptr inbounds nuw %"class.tbb::detail::r1::intrusive_list_base", ptr %3, i32 0, i32 0
  %10 = getelementptr inbounds nuw %"class.tbb::detail::r1::intrusive_list_base", ptr %3, i32 0, i32 0
  %11 = getelementptr inbounds nuw %"struct.tbb::detail::d1::intrusive_list_node", ptr %10, i32 0, i32 1
  store ptr %9, ptr %11, align 8, !tbaa !58
  ret void
}

; Function Attrs: noinline noreturn nounwind sspstrong uwtable
define linkonce_odr hidden void @__clang_call_terminate(ptr noundef %0) #5 comdat {
  %2 = call ptr @__cxa_begin_catch(ptr %0) #11
  call void @_ZSt9terminatev() #14
  unreachable
}

; Function Attrs: inlinehint mustprogress nounwind sspstrong uwtable
define linkonce_odr void @_ZN3tbb6detail2d115create_itt_syncEPvPKcS4_(ptr noundef %0, ptr noundef %1, ptr noundef %2) #1 comdat {
  %4 = alloca ptr, align 8
  %5 = alloca ptr, align 8
  %6 = alloca ptr, align 8
  store ptr %0, ptr %4, align 8, !tbaa !118
  store ptr %1, ptr %5, align 8, !tbaa !132
  store ptr %2, ptr %6, align 8, !tbaa !132
  ret void
}

; Function Attrs: mustprogress nounwind sspstrong uwtable
define linkonce_odr void @_ZNSt6atomicIlEC2El(ptr noundef nonnull align 8 dereferenceable(8) %0, i64 noundef %1) unnamed_addr #2 comdat align 2 {
  %3 = alloca ptr, align 8
  %4 = alloca i64, align 8
  store ptr %0, ptr %3, align 8, !tbaa !138
  store i64 %1, ptr %4, align 8, !tbaa !12
  %5 = load ptr, ptr %3, align 8
  %6 = load i64, ptr %4, align 8, !tbaa !12
  call void @_ZNSt13__atomic_baseIlEC2El(ptr noundef nonnull align 8 dereferenceable(8) %5, i64 noundef %6) #11
  ret void
}

; Function Attrs: inlinehint mustprogress nounwind sspstrong uwtable
define linkonce_odr void @_ZN3rml6clientC2Ev(ptr noundef nonnull align 8 dereferenceable(8) %0) unnamed_addr #1 comdat align 2 {
  %2 = alloca ptr, align 8
  store ptr %0, ptr %2, align 8, !tbaa !134
  %3 = load ptr, ptr %2, align 8
  call void @_ZN3rml16versioned_objectC2Ev(ptr noundef nonnull align 8 dereferenceable(8) %3) #11
  store ptr getelementptr inbounds inrange(-16, 64) ({ [10 x ptr] }, ptr @_ZTVN3rml6clientE, i32 0, i32 0, i32 2), ptr %3, align 8, !tbaa !14
  ret void
}

; Function Attrs: mustprogress nounwind sspstrong uwtable
define linkonce_odr void @_ZN3rml16versioned_objectD2Ev(ptr noundef nonnull align 8 dereferenceable(8) %0) unnamed_addr #2 comdat align 2 {
  %2 = alloca ptr, align 8
  store ptr %0, ptr %2, align 8, !tbaa !136
  ret void
}

; Function Attrs: mustprogress nounwind sspstrong uwtable
define linkonce_odr void @_ZN3tbb6detail2d18rw_mutexD2Ev(ptr noundef nonnull align 8 dereferenceable(8) %0) unnamed_addr #2 comdat align 2 {
  %2 = alloca ptr, align 8
  store ptr %0, ptr %2, align 8, !tbaa !37
  ret void
}

; Function Attrs: mustprogress nounwind sspstrong uwtable
define linkonce_odr void @_ZNSt6atomicIjEC2Ej(ptr noundef nonnull align 4 dereferenceable(4) %0, i32 noundef %1) unnamed_addr #2 comdat align 2 {
  %3 = alloca ptr, align 8
  %4 = alloca i32, align 4
  store ptr %0, ptr %3, align 8, !tbaa !43
  store i32 %1, ptr %4, align 4, !tbaa !10
  %5 = load ptr, ptr %3, align 8
  %6 = load i32, ptr %4, align 4, !tbaa !10
  call void @_ZNSt13__atomic_baseIjEC2Ej(ptr noundef nonnull align 4 dereferenceable(4) %5, i32 noundef %6) #11
  ret void
}

; Function Attrs: mustprogress nounwind sspstrong uwtable
define linkonce_odr void @_ZNSt6atomicImEC2Em(ptr noundef nonnull align 8 dereferenceable(8) %0, i64 noundef %1) unnamed_addr #2 comdat align 2 {
  %3 = alloca ptr, align 8
  %4 = alloca i64, align 8
  store ptr %0, ptr %3, align 8, !tbaa !41
  store i64 %1, ptr %4, align 8, !tbaa !12
  %5 = load ptr, ptr %3, align 8
  %6 = load i64, ptr %4, align 8, !tbaa !12
  call void @_ZNSt13__atomic_baseImEC2Em(ptr noundef nonnull align 8 dereferenceable(8) %5, i64 noundef %6) #11
  ret void
}

; Function Attrs: inlinehint mustprogress sspstrong uwtable
define linkonce_odr void @_ZN3tbb6detail2r114intrusive_listINS1_24thread_dispatcher_clientEEC2Ev(ptr noundef nonnull align 8 dereferenceable(24) %0) unnamed_addr #3 comdat align 2 {
  %2 = alloca ptr, align 8
  store ptr %0, ptr %2, align 8, !tbaa !39
  %3 = load ptr, ptr %2, align 8
  call void @_ZN3tbb6detail2r119intrusive_list_baseINS1_14intrusive_listINS1_24thread_dispatcher_clientEEES4_EC2Ev(ptr noundef nonnull align 8 dereferenceable(24) %3)
  ret void
}

; Function Attrs: mustprogress nounwind sspstrong uwtable
define linkonce_odr void @_ZN3tbb6detail2d18rw_mutexC2Ev(ptr noundef nonnull align 8 dereferenceable(8) %0) unnamed_addr #2 comdat align 2 personality ptr @__gxx_personality_v0 {
  %2 = alloca ptr, align 8
  store ptr %0, ptr %2, align 8, !tbaa !37
  %3 = load ptr, ptr %2, align 8
  %4 = getelementptr inbounds nuw %"class.tbb::detail::d1::rw_mutex", ptr %3, i32 0, i32 0
  call void @_ZNSt6atomicIlEC2El(ptr noundef nonnull align 8 dereferenceable(8) %4, i64 noundef 0) #11
  invoke void @_ZN3tbb6detail2d115create_itt_syncEPvPKcS4_(ptr noundef %3, ptr noundef @.str.1, ptr noundef @.str.2)
          to label %5 unwind label %6

5:                                                ; preds = %1
  ret void

6:                                                ; preds = %1
  %7 = landingpad { ptr, i32 }
          catch ptr null
  %8 = extractvalue { ptr, i32 } %7, 0
  call void @__clang_call_terminate(ptr %8) #14
  unreachable
}

; Function Attrs: inlinehint mustprogress nounwind sspstrong uwtable
define linkonce_odr void @_ZN3tbb6detail2r13rml10tbb_clientC2Ev(ptr noundef nonnull align 8 dereferenceable(8) %0) unnamed_addr #1 comdat align 2 {
  %2 = alloca ptr, align 8
  store ptr %0, ptr %2, align 8, !tbaa !35
  %3 = load ptr, ptr %2, align 8
  call void @_ZN3rml6clientC2Ev(ptr noundef nonnull align 8 dereferenceable(8) %3) #11
  store ptr getelementptr inbounds inrange(-16, 72) ({ [11 x ptr] }, ptr @_ZTVN3tbb6detail2r13rml10tbb_clientE, i32 0, i32 0, i32 2), ptr %3, align 8, !tbaa !14
  ret void
}

; Function Attrs: mustprogress sspstrong uwtable
define void @_ZN3tbb6detail2r117thread_dispatcherC2ERNS1_17threading_controlEjm(ptr noundef nonnull align 8 dereferenceable(152) %0, ptr noundef nonnull align 8 dereferenceable(16) %1, i32 noundef %2, i64 noundef %3) unnamed_addr #0 align 2 personality ptr @__gxx_personality_v0 {
  %5 = alloca ptr, align 8
  %6 = alloca ptr, align 8
  %7 = alloca i32, align 4
  %8 = alloca i64, align 8
  %9 = alloca ptr, align 8
  %10 = alloca i32, align 4
  store ptr %0, ptr %5, align 8, !tbaa !3
  store ptr %1, ptr %6, align 8, !tbaa !8
  store i32 %2, ptr %7, align 4, !tbaa !10
  store i64 %3, ptr %8, align 8, !tbaa !12
  %11 = load ptr, ptr %5, align 8
  call void @_ZN3tbb6detail2r13rml10tbb_clientC2Ev(ptr noundef nonnull align 8 dereferenceable(8) %11) #11
  store ptr getelementptr inbounds inrange(-16, 72) ({ [11 x ptr] }, ptr @_ZTVN3tbb6detail2r117thread_dispatcherE, i32 0, i32 0, i32 2), ptr %11, align 8, !tbaa !14
  %12 = getelementptr inbounds nuw %"class.tbb::detail::r1::thread_dispatcher", ptr %11, i32 0, i32 1
  call void @_ZN3tbb6detail2d18rw_mutexC2Ev(ptr noundef nonnull align 8 dereferenceable(8) %12) #11
  %13 = getelementptr inbounds nuw %"class.tbb::detail::r1::thread_dispatcher", ptr %11, i32 0, i32 2
  %14 = getelementptr inbounds [3 x %"class.tbb::detail::r1::intrusive_list"], ptr %13, i32 0, i32 0
  %15 = getelementptr inbounds %"class.tbb::detail::r1::intrusive_list", ptr %14, i64 3
  br label %16

16:                                               ; preds = %18, %4
  %17 = phi ptr [ %14, %4 ], [ %19, %18 ]
  invoke void @_ZN3tbb6detail2r114intrusive_listINS1_24thread_dispatcher_clientEEC2Ev(ptr noundef nonnull align 8 dereferenceable(24) %17)
          to label %18 unwind label %36

18:                                               ; preds = %16
  %19 = getelementptr inbounds %"class.tbb::detail::r1::intrusive_list", ptr %17, i64 1
  %20 = icmp eq ptr %19, %15
  br i1 %20, label %21, label %16

21:                                               ; preds = %18
  %22 = getelementptr inbounds nuw %"class.tbb::detail::r1::thread_dispatcher", ptr %11, i32 0, i32 3
  store ptr null, ptr %22, align 8, !tbaa !16
  %23 = getelementptr inbounds nuw %"class.tbb::detail::r1::thread_dispatcher", ptr %11, i32 0, i32 4
  store i8 0, ptr %23, align 8, !tbaa !31
  %24 = getelementptr inbounds nuw %"class.tbb::detail::r1::thread_dispatcher", ptr %11, i32 0, i32 5
  %25 = load ptr, ptr %6, align 8, !tbaa !8
  store ptr %25, ptr %24, align 8, !tbaa !8
  %26 = getelementptr inbounds nuw %"class.tbb::detail::r1::thread_dispatcher", ptr %11, i32 0, i32 6
  call void @_ZNSt6atomicImEC2Em(ptr noundef nonnull align 8 dereferenceable(8) %26, i64 noundef 0) #11
  %27 = getelementptr inbounds nuw %"class.tbb::detail::r1::thread_dispatcher", ptr %11, i32 0, i32 7
  %28 = load i32, ptr %7, align 4, !tbaa !10
  store i32 %28, ptr %27, align 8, !tbaa !32
  %29 = getelementptr inbounds nuw %"class.tbb::detail::r1::thread_dispatcher", ptr %11, i32 0, i32 8
  %30 = load i64, ptr %8, align 8, !tbaa !12
  store i64 %30, ptr %29, align 8, !tbaa !33
  %31 = getelementptr inbounds nuw %"class.tbb::detail::r1::thread_dispatcher", ptr %11, i32 0, i32 9
  call void @_ZNSt6atomicIjEC2Ej(ptr noundef nonnull align 4 dereferenceable(4) %31, i32 noundef 0) #11
  %32 = getelementptr inbounds nuw %"class.tbb::detail::r1::thread_dispatcher", ptr %11, i32 0, i32 10
  store ptr null, ptr %32, align 8, !tbaa !34
  %33 = invoke noundef ptr @_ZN3tbb6detail2r18governor17create_rml_serverERNS1_3rml10tbb_clientE(ptr noundef nonnull align 8 dereferenceable(8) %11)
          to label %34 unwind label %36

34:                                               ; preds = %21
  %35 = getelementptr inbounds nuw %"class.tbb::detail::r1::thread_dispatcher", ptr %11, i32 0, i32 10
  store ptr %33, ptr %35, align 8, !tbaa !34
  ret void

36:                                               ; preds = %21, %16
  %37 = landingpad { ptr, i32 }
          cleanup
  %38 = extractvalue { ptr, i32 } %37, 0
  store ptr %38, ptr %9, align 8
  %39 = extractvalue { ptr, i32 } %37, 1
  store i32 %39, ptr %10, align 4
  call void @_ZN3tbb6detail2d18rw_mutexD2Ev(ptr noundef nonnull align 8 dereferenceable(8) %12) #11
  call void @_ZN3rml16versioned_objectD2Ev(ptr noundef nonnull align 8 dereferenceable(8) %11) #11
  br label %40

40:                                               ; preds = %36
  %41 = load ptr, ptr %9, align 8
  %42 = load i32, ptr %10, align 4
  %43 = insertvalue { ptr, i32 } poison, ptr %41, 0
  %44 = insertvalue { ptr, i32 } %43, i32 %42, 1
  resume { ptr, i32 } %44
}