; Function Attrs: mustprogress sspstrong uwtable
define void @_ZN3tbb6detail2r117thread_dispatcherC2ERNS1_17threading_controlEjm(ptr noundef nonnull align 8 dereferenceable(152) initializes((0, 16)) %0, ptr noundef nonnull align 8 dereferenceable(16) %1, i32 noundef %2, i64 noundef %3) unnamed_addr #0 align 2 personality ptr @__gxx_personality_v0 {
  store ptr getelementptr inbounds nuw inrange(-16, 72) (i8, ptr @_ZTVN3tbb6detail2r117thread_dispatcherE, i64 16), ptr %0, align 8, !tbaa !3
  %5 = getelementptr inbounds nuw i8, ptr %0, i64 8
  store i64 0, ptr %5, align 8, !tbaa !6
  br label %6

6:                                                ; preds = %4, %6
  %.idx = phi i64 [ 16, %4 ], [ %.add, %6 ]
  %.ptr = getelementptr inbounds nuw i8, ptr %0, i64 %.idx
  %7 = getelementptr inbounds nuw i8, ptr %.ptr, i64 16
  store i64 0, ptr %7, align 8
  store ptr %.ptr, ptr %.ptr, align 8, !tbaa !10
  %8 = getelementptr inbounds nuw i8, ptr %.ptr, i64 8
  store ptr %.ptr, ptr %8, align 8, !tbaa !15
  %.add = add nuw nsw i64 %.idx, 24
  %9 = icmp eq i64 %.add, 88
  br i1 %9, label %10, label %6

10:                                               ; preds = %6
  %11 = getelementptr inbounds nuw i8, ptr %0, i64 88
  store ptr null, ptr %11, align 8, !tbaa !16
  %12 = getelementptr inbounds nuw i8, ptr %0, i64 96
  store i8 0, ptr %12, align 8, !tbaa !32
  %13 = getelementptr inbounds nuw i8, ptr %0, i64 104
  store ptr %1, ptr %13, align 8, !tbaa !33
  %14 = getelementptr inbounds nuw i8, ptr %0, i64 112
  store i64 0, ptr %14, align 8, !tbaa !34
  %15 = getelementptr inbounds nuw i8, ptr %0, i64 120
  store i32 %2, ptr %15, align 8, !tbaa !35
  %16 = getelementptr inbounds nuw i8, ptr %0, i64 128
  store i64 %3, ptr %16, align 8, !tbaa !36
  %17 = getelementptr inbounds nuw i8, ptr %0, i64 136
  store i32 0, ptr %17, align 8, !tbaa !37
  %18 = getelementptr inbounds nuw i8, ptr %0, i64 144
  store ptr null, ptr %18, align 8, !tbaa !38
  %19 = tail call noundef ptr @_ZN3tbb6detail2r18governor17create_rml_serverERNS1_3rml10tbb_clientE(ptr noundef nonnull align 8 dereferenceable(8) %0)
  store ptr %19, ptr %18, align 8, !tbaa !38
  ret void
}